CCS PCM C Compiler, Version 4.032, 62930               24-mai-16 16:46

               Filename: C:\Users\Sergio\Documents\Proteus\PID\PIDControl.lst

               ROM used: 3343 words (41%)
                         Largest free fragment is 2048
               RAM used: 119 (32%) at main() level
                         162 (44%) worst case
               Stack:    7 worst case (5 in main + 2 for interrupts)

*
0000:  MOVLW  08
0001:  MOVWF  0A
0002:  GOTO   000
0003:  NOP
0004:  MOVWF  7F
0005:  SWAPF  03,W
0006:  CLRF   03
0007:  MOVWF  21
0008:  MOVF   0A,W
0009:  MOVWF  20
000A:  CLRF   0A
000B:  MOVF   04,W
000C:  MOVWF  22
000D:  MOVF   77,W
000E:  MOVWF  23
000F:  MOVF   78,W
0010:  MOVWF  24
0011:  MOVF   79,W
0012:  MOVWF  25
0013:  MOVF   7A,W
0014:  MOVWF  26
0015:  MOVF   7B,W
0016:  MOVWF  27
0017:  BCF    03.7
0018:  BCF    03.5
0019:  BTFSS  0B.5
001A:  GOTO   01D
001B:  BTFSC  0B.2
001C:  GOTO   030
001D:  MOVF   22,W
001E:  MOVWF  04
001F:  MOVF   23,W
0020:  MOVWF  77
0021:  MOVF   24,W
0022:  MOVWF  78
0023:  MOVF   25,W
0024:  MOVWF  79
0025:  MOVF   26,W
0026:  MOVWF  7A
0027:  MOVF   27,W
0028:  MOVWF  7B
0029:  MOVF   20,W
002A:  MOVWF  0A
002B:  SWAPF  21,W
002C:  MOVWF  03
002D:  SWAPF  7F,F
002E:  SWAPF  7F,W
002F:  RETFIE
0030:  BCF    0A.3
0031:  BCF    0A.4
0032:  GOTO   2AC
.................... #INCLUDE <16F887.h> 
.................... //////// Standard Header file for the PIC16F887 device //////////////// 
.................... #device PIC16F887 
.................... #list 
....................  
.................... #DEVICE ADC=10 
.................... #USE DELAY(CLOCK=4000000) 
*
042C:  MOVLW  C3
042D:  MOVWF  04
042E:  BCF    03.7
042F:  MOVF   00,W
0430:  BTFSC  03.2
0431:  GOTO   440
0432:  MOVLW  01
0433:  MOVWF  78
0434:  CLRF   77
0435:  DECFSZ 77,F
0436:  GOTO   435
0437:  DECFSZ 78,F
0438:  GOTO   434
0439:  MOVLW  4A
043A:  MOVWF  77
043B:  DECFSZ 77,F
043C:  GOTO   43B
043D:  GOTO   43E
043E:  DECFSZ 00,F
043F:  GOTO   432
0440:  RETLW  00
.................... #FUSES XT,NOPROTECT,NOWDT,NOBROWNOUT,PUT,NOLVP 
.................... #include <lcd420.c> 
.................... //////////////////////////////////////////////////////////////////////////// 
.................... ////                             LCD420.C                               //// 
.................... ////            Driver for common 4x20 LCD modules                      //// 
.................... ////                                                                    //// 
.................... ////  lcd_init()   Must be called before any other function.            //// 
.................... ////                                                                    //// 
.................... ////  lcd_putc(c)  Will display c on the next position of the LCD.      //// 
.................... ////                     The following have special meaning:            //// 
.................... ////                      \f  Clear display                             //// 
.................... ////                      \n  Go to start of second line                //// 
.................... ////                      \b  Move back one position                    //// 
.................... ////                                                                    //// 
.................... ////  lcd_gotoxy(x,y) Set write position on LCD (upper left is 1,1)     //// 
.................... ////                                                                    //// 
.................... ////  lcd_getc(x,y)   Returns character at position x,y on LCD          //// 
.................... ////                                                                    //// 
.................... //////////////////////////////////////////////////////////////////////////// 
.................... ////        (C) Copyright 1996,1997 Custom Computer Services            //// 
.................... //// This source code may only be used by licensed users of the CCS C   //// 
.................... //// compiler.  This source code may only be distributed to other       //// 
.................... //// licensed users of the CCS C compiler.  No other use, reproduction  //// 
.................... //// or distribution is permitted without written permission.           //// 
.................... //// Derivative programs created using this software in object code     //// 
.................... //// form are not restricted in any way.                                //// 
.................... //////////////////////////////////////////////////////////////////////////// 
....................  
.................... // As defined in the following structure the pin connection is as follows: 
.................... //     B0  enable 
.................... //     B1  rs 
.................... //     B2  rw 
.................... //     B4  D4 
.................... //     B5  D5 
.................... //     B6  D6 
.................... //     B7  D7 
.................... // 
.................... //   LCD pins D0-D3 are not used and PIC B3 is not used. 
....................  
.................... struct lcd_pin_map {                 // This structure is overlayed 
....................            BOOLEAN enable;           // on to an I/O port to gain 
....................            BOOLEAN rs;               // access to the LCD pins. 
....................            BOOLEAN rw;               // The bits are allocated from 
....................            BOOLEAN unused;           // low order up.  ENABLE will 
....................            int     data : 4;         // be pin B0. 
....................         } lcd; 
....................  
.................... #byte lcd = 6                        // This puts the entire structure 
....................                                      // on to port B (at address 6) 
....................  
.................... #define lcd_type 2           // 0=5x7, 1=5x10, 2=2 lines 
....................  
....................  
.................... BYTE const LCD_INIT_STRING[4] = {0x20 | (lcd_type << 2), 0xc, 1, 6}; 
....................                              // These bytes need to be sent to the LCD 
....................                              // to start it up. 
....................  
....................  
....................                              // The following are used for setting 
....................                              // the I/O port direction register. 
....................  
.................... struct lcd_pin_map const LCD_WRITE = {0,0,0,0,0}; // For write mode all pins are out 
.................... struct lcd_pin_map const LCD_READ = {0,0,0,0,15}; // For read mode data pins are in 
....................  
....................  
.................... BYTE lcdline; 
....................  
.................... BYTE lcd_read_byte() { 
....................       BYTE low,high; 
....................  
....................       set_tris_b(LCD_READ); 
*
0450:  MOVLW  F0
0451:  BSF    03.5
0452:  MOVWF  06
....................       lcd.rw = 1; 
0453:  BCF    03.5
0454:  BSF    06.2
....................       delay_cycles(1); 
0455:  NOP
....................       lcd.enable = 1; 
0456:  BSF    06.0
....................       delay_cycles(1); 
0457:  NOP
....................       high = lcd.data; 
0458:  MOVF   06,W
0459:  SWAPF  06,W
045A:  ANDLW  0F
045B:  BSF    03.5
045C:  MOVWF  49
....................       lcd.enable = 0; 
045D:  BCF    03.5
045E:  BCF    06.0
....................       delay_cycles(1); 
045F:  NOP
....................       lcd.enable = 1; 
0460:  BSF    06.0
....................       delay_us(1); 
0461:  NOP
....................       low = lcd.data; 
0462:  MOVF   06,W
0463:  SWAPF  06,W
0464:  ANDLW  0F
0465:  BSF    03.5
0466:  MOVWF  48
....................       lcd.enable = 0; 
0467:  BCF    03.5
0468:  BCF    06.0
....................       set_tris_b(LCD_WRITE); 
0469:  MOVLW  00
046A:  BSF    03.5
046B:  MOVWF  06
....................       return( (high<<4) | low); 
046C:  SWAPF  49,W
046D:  MOVWF  77
046E:  MOVLW  F0
046F:  ANDWF  77,F
0470:  MOVF   77,W
0471:  IORWF  48,W
0472:  MOVWF  78
.................... } 
....................  
....................  
.................... void lcd_send_nibble( BYTE n ) { 
....................       lcd.data = n; 
*
0441:  BSF    03.5
0442:  SWAPF  49,W
0443:  ANDLW  F0
0444:  MOVWF  77
0445:  MOVLW  0F
0446:  BCF    03.5
0447:  ANDWF  06,W
0448:  IORWF  77,W
0449:  MOVWF  06
....................       delay_cycles(1); 
044A:  NOP
....................       lcd.enable = 1; 
044B:  BSF    06.0
....................       delay_us(2); 
044C:  GOTO   44D
....................       lcd.enable = 0; 
044D:  BCF    06.0
.................... } 
044E:  RETLW  00
....................  
....................  
.................... void lcd_send_byte( BYTE address, BYTE n ) { 
....................  
....................       lcd.rs = 0; 
044F:  BCF    06.1
....................       while ( bit_test(lcd_read_byte(),7) ) ; 
*
0473:  MOVF   78,W
0474:  MOVWF  48
0475:  BTFSS  48.7
0476:  GOTO   479
0477:  BCF    03.5
0478:  GOTO   450
....................       lcd.rs = address; 
0479:  BTFSC  46.0
047A:  GOTO   47E
047B:  BCF    03.5
047C:  BCF    06.1
047D:  BSF    03.5
047E:  BTFSS  46.0
047F:  GOTO   483
0480:  BCF    03.5
0481:  BSF    06.1
0482:  BSF    03.5
....................       delay_cycles(1); 
0483:  NOP
....................       lcd.rw = 0; 
0484:  BCF    03.5
0485:  BCF    06.2
....................       delay_cycles(1); 
0486:  NOP
....................       lcd.enable = 0; 
0487:  BCF    06.0
....................       lcd_send_nibble(n >> 4); 
0488:  BSF    03.5
0489:  SWAPF  47,W
048A:  MOVWF  48
048B:  MOVLW  0F
048C:  ANDWF  48,F
048D:  MOVF   48,W
048E:  MOVWF  49
048F:  BCF    03.5
0490:  CALL   441
....................       lcd_send_nibble(n & 0xf); 
0491:  BSF    03.5
0492:  MOVF   47,W
0493:  ANDLW  0F
0494:  MOVWF  48
0495:  MOVWF  49
0496:  BCF    03.5
0497:  CALL   441
.................... } 
0498:  RETLW  00
....................  
....................  
.................... void lcd_init() { 
....................     BYTE i; 
....................  
....................     set_tris_b(LCD_WRITE); 
0499:  MOVLW  00
049A:  BSF    03.5
049B:  MOVWF  06
....................     lcd.rs = 0; 
049C:  BCF    03.5
049D:  BCF    06.1
....................     lcd.rw = 0; 
049E:  BCF    06.2
....................     lcd.enable = 0; 
049F:  BCF    06.0
....................     delay_ms(15); 
04A0:  MOVLW  0F
04A1:  BSF    03.5
04A2:  MOVWF  43
04A3:  BCF    03.5
04A4:  CALL   42C
....................     for(i=1;i<=3;++i) { 
04A5:  MOVLW  01
04A6:  BSF    03.5
04A7:  MOVWF  30
04A8:  MOVF   30,W
04A9:  SUBLW  03
04AA:  BTFSS  03.0
04AB:  GOTO   4B8
....................        lcd_send_nibble(3); 
04AC:  MOVLW  03
04AD:  MOVWF  49
04AE:  BCF    03.5
04AF:  CALL   441
....................        delay_ms(5); 
04B0:  MOVLW  05
04B1:  BSF    03.5
04B2:  MOVWF  43
04B3:  BCF    03.5
04B4:  CALL   42C
....................     } 
04B5:  BSF    03.5
04B6:  INCF   30,F
04B7:  GOTO   4A8
....................     lcd_send_nibble(2); 
04B8:  MOVLW  02
04B9:  MOVWF  49
04BA:  BCF    03.5
04BB:  CALL   441
....................     for(i=0;i<=3;++i) 
04BC:  BSF    03.5
04BD:  CLRF   30
04BE:  MOVF   30,W
04BF:  SUBLW  03
04C0:  BTFSS  03.0
04C1:  GOTO   4CF
....................        lcd_send_byte(0, LCD_INIT_STRING[i]); 
04C2:  MOVF   30,W
04C3:  BCF    03.5
04C4:  CALL   033
04C5:  BSF    03.5
04C6:  MOVWF  31
04C7:  CLRF   46
04C8:  MOVF   31,W
04C9:  MOVWF  47
04CA:  BCF    03.5
04CB:  CALL   44F
04CC:  BSF    03.5
04CD:  INCF   30,F
04CE:  GOTO   4BE
.................... } 
04CF:  BCF    03.5
04D0:  BSF    0A.3
04D1:  BCF    0A.4
04D2:  GOTO   0AC (RETURN)
....................  
....................  
.................... void lcd_gotoxy( BYTE x, BYTE y) { 
....................    BYTE address; 
....................  
....................    switch(y) { 
04D3:  MOVLW  01
04D4:  BSF    03.5
04D5:  SUBWF  44,W
04D6:  ADDLW  FC
04D7:  BTFSC  03.0
04D8:  GOTO   4ED
04D9:  ADDLW  04
04DA:  BCF    03.5
04DB:  GOTO   4F6
....................      case 1 : address=0x80;break; 
04DC:  MOVLW  80
04DD:  BSF    03.5
04DE:  MOVWF  45
04DF:  GOTO   4ED
....................      case 2 : address=0xc0;break; 
04E0:  MOVLW  C0
04E1:  BSF    03.5
04E2:  MOVWF  45
04E3:  GOTO   4ED
....................      case 3 : address=0x94;break; 
04E4:  MOVLW  94
04E5:  BSF    03.5
04E6:  MOVWF  45
04E7:  GOTO   4ED
....................      case 4 : address=0xd4;break; 
04E8:  MOVLW  D4
04E9:  BSF    03.5
04EA:  MOVWF  45
04EB:  GOTO   4ED
04EC:  BSF    03.5
....................    } 
....................    address+=x-1; 
04ED:  MOVLW  01
04EE:  SUBWF  43,W
04EF:  ADDWF  45,F
....................    lcd_send_byte(0,address); 
04F0:  CLRF   46
04F1:  MOVF   45,W
04F2:  MOVWF  47
04F3:  BCF    03.5
04F4:  CALL   44F
.................... } 
04F5:  RETLW  00
....................  
.................... void lcd_putc( char c) { 
....................    switch (c) { 
*
04FE:  BSF    03.5
04FF:  MOVF   42,W
0500:  XORLW  0C
0501:  BCF    03.5
0502:  BTFSC  03.2
0503:  GOTO   50B
0504:  XORLW  06
0505:  BTFSC  03.2
0506:  GOTO   519
0507:  XORLW  02
0508:  BTFSC  03.2
0509:  GOTO   524
050A:  GOTO   52B
....................      case '\f'   : lcd_send_byte(0,1); 
050B:  BSF    03.5
050C:  CLRF   46
050D:  MOVLW  01
050E:  MOVWF  47
050F:  BCF    03.5
0510:  CALL   44F
....................                    lcdline=1; 
0511:  MOVLW  01
0512:  MOVWF  29
....................                    delay_ms(2); 
0513:  MOVLW  02
0514:  BSF    03.5
0515:  MOVWF  43
0516:  BCF    03.5
0517:  CALL   42C
....................                                            break; 
0518:  GOTO   533
....................      case '\n'   : lcd_gotoxy(1,++lcdline);        break; 
0519:  INCF   29,F
051A:  MOVLW  01
051B:  BSF    03.5
051C:  MOVWF  43
051D:  BCF    03.5
051E:  MOVF   29,W
051F:  BSF    03.5
0520:  MOVWF  44
0521:  BCF    03.5
0522:  CALL   4D3
0523:  GOTO   533
....................      case '\b'   : lcd_send_byte(0,0x10);  break; 
0524:  BSF    03.5
0525:  CLRF   46
0526:  MOVLW  10
0527:  MOVWF  47
0528:  BCF    03.5
0529:  CALL   44F
052A:  GOTO   533
....................      default     : lcd_send_byte(1,c);     break; 
052B:  MOVLW  01
052C:  BSF    03.5
052D:  MOVWF  46
052E:  MOVF   42,W
052F:  MOVWF  47
0530:  BCF    03.5
0531:  CALL   44F
0532:  GOTO   533
....................    } 
.................... } 
0533:  RETLW  00
....................  
.................... char lcd_getc( BYTE x, BYTE y) { 
....................    char value; 
....................  
....................     lcd_gotoxy(x,y); 
....................     lcd.rs=1; 
....................     value = lcd_read_byte(); 
....................     lcd.rs=0; 
....................     return(value); 
.................... } 
....................  
....................  
.................... //Configura direccion de memoria de los puertos A,B,C,D 
.................... #BYTE PORTA= 5 
.................... #BYTE PORTB= 6 
.................... #BYTE PORTC= 7 
.................... #BYTE PORTD= 8 
.................... int veces=39,seg=0; 
*
081B:  MOVLW  27
081C:  BCF    03.5
081D:  MOVWF  2A
081E:  CLRF   2B
.................... int16 adc,control=0; 
081F:  CLRF   2E
0820:  CLRF   2F
.................... float yM=0,R=1500.0,e=0.0,e_1=0.0,e_2=0.0,u=0.0,u_1=0.0; 
0821:  CLRF   30
0822:  CLRF   31
0823:  CLRF   32
0824:  CLRF   33
0825:  MOVLW  89
0826:  MOVWF  34
0827:  MOVLW  3B
0828:  MOVWF  35
0829:  MOVLW  80
082A:  MOVWF  36
082B:  CLRF   37
082C:  CLRF   38
082D:  CLRF   39
082E:  CLRF   3A
082F:  CLRF   3B
0830:  CLRF   3C
0831:  CLRF   3D
0832:  CLRF   3E
0833:  CLRF   3F
0834:  CLRF   40
0835:  CLRF   41
0836:  CLRF   42
0837:  CLRF   43
0838:  CLRF   44
0839:  CLRF   45
083A:  CLRF   46
083B:  CLRF   47
083C:  CLRF   48
083D:  CLRF   49
083E:  CLRF   4A
083F:  CLRF   4B
.................... float kp,ti,td,q0,q1,q2,T=0.1; 
0840:  MOVLW  7B
0841:  MOVWF  64
0842:  MOVLW  4C
0843:  MOVWF  65
0844:  MOVLW  CC
0845:  MOVWF  66
0846:  MOVLW  CD
0847:  MOVWF  67
.................... float k=53.5,tao=10.0,theta=1.0; 
0848:  MOVLW  84
0849:  MOVWF  68
084A:  MOVLW  56
084B:  MOVWF  69
084C:  CLRF   6A
084D:  CLRF   6B
084E:  MOVLW  82
084F:  MOVWF  6C
0850:  MOVLW  20
0851:  MOVWF  6D
0852:  CLRF   6E
0853:  CLRF   6F
0854:  MOVLW  7F
0855:  MOVWF  70
0856:  CLRF   71
0857:  CLRF   72
0858:  CLRF   73
.................... float TsMA,Wn,P1,P2; 
....................  
.................... //Con esta rutina de desbordamiento del timer 0 
.................... //Hago el conteo del tiempo de muestreo 
.................... #INT_RTCC //Rutina de interrupción por RTCC 
.................... RELOJ() 
.................... { 
....................  
....................    VECES--;          //Decremento variable veces 
*
02AC:  DECF   2A,F
....................    SET_RTCC(246);    //Cargo el timer con 243 
02AD:  MOVLW  F6
02AE:  MOVWF  01
....................    IF(VECES==0)      //La variable veces se carga con 30 y el timer con 243 
02AF:  MOVF   2A,F
02B0:  BTFSS  03.2
02B1:  GOTO   2B5
....................    {                 //para que entre a la interrupcion cada 100 milisegundos 
....................       VECES=39; 
02B2:  MOVLW  27
02B3:  MOVWF  2A
....................       seg++;         //y incremente el contador 'seg' 
02B4:  INCF   2B,F
....................    } 
....................    if(seg==1) 
02B5:  DECFSZ 2B,W
02B6:  GOTO   428
....................    { 
....................     seg=0; 
02B7:  CLRF   2B
....................     output_toggle(pin_d0); 
02B8:  BSF    03.5
02B9:  BCF    08.0
02BA:  MOVLW  01
02BB:  BCF    03.5
02BC:  XORWF  08,F
....................     //Comienzo la ley de control 
....................      
....................     e=R-yM; 
02BD:  BSF    03.1
02BE:  MOVF   37,W
02BF:  BSF    03.5
02C0:  MOVWF  5A
02C1:  BCF    03.5
02C2:  MOVF   36,W
02C3:  BSF    03.5
02C4:  MOVWF  59
02C5:  BCF    03.5
02C6:  MOVF   35,W
02C7:  BSF    03.5
02C8:  MOVWF  58
02C9:  BCF    03.5
02CA:  MOVF   34,W
02CB:  BSF    03.5
02CC:  MOVWF  57
02CD:  BCF    03.5
02CE:  MOVF   33,W
02CF:  BSF    03.5
02D0:  MOVWF  5E
02D1:  BCF    03.5
02D2:  MOVF   32,W
02D3:  BSF    03.5
02D4:  MOVWF  5D
02D5:  BCF    03.5
02D6:  MOVF   31,W
02D7:  BSF    03.5
02D8:  MOVWF  5C
02D9:  BCF    03.5
02DA:  MOVF   30,W
02DB:  BSF    03.5
02DC:  MOVWF  5B
02DD:  BCF    03.5
02DE:  CALL   08B
02DF:  MOVF   7A,W
02E0:  MOVWF  3B
02E1:  MOVF   79,W
02E2:  MOVWF  3A
02E3:  MOVF   78,W
02E4:  MOVWF  39
02E5:  MOVF   77,W
02E6:  MOVWF  38
....................     // Controle PID 
....................       u = u_1 + q0*e + q1*e_1 + q2*e_2; //Ley del controlador PID discreto 
02E7:  MOVF   5B,W
02E8:  BSF    03.5
02E9:  MOVWF  5A
02EA:  BCF    03.5
02EB:  MOVF   5A,W
02EC:  BSF    03.5
02ED:  MOVWF  59
02EE:  BCF    03.5
02EF:  MOVF   59,W
02F0:  BSF    03.5
02F1:  MOVWF  58
02F2:  BCF    03.5
02F3:  MOVF   58,W
02F4:  BSF    03.5
02F5:  MOVWF  57
02F6:  BCF    03.5
02F7:  MOVF   3B,W
02F8:  BSF    03.5
02F9:  MOVWF  5E
02FA:  BCF    03.5
02FB:  MOVF   3A,W
02FC:  BSF    03.5
02FD:  MOVWF  5D
02FE:  BCF    03.5
02FF:  MOVF   39,W
0300:  BSF    03.5
0301:  MOVWF  5C
0302:  BCF    03.5
0303:  MOVF   38,W
0304:  BSF    03.5
0305:  MOVWF  5B
0306:  BCF    03.5
0307:  CALL   1D1
0308:  BCF    03.1
0309:  MOVF   4B,W
030A:  BSF    03.5
030B:  MOVWF  5A
030C:  BCF    03.5
030D:  MOVF   4A,W
030E:  BSF    03.5
030F:  MOVWF  59
0310:  BCF    03.5
0311:  MOVF   49,W
0312:  BSF    03.5
0313:  MOVWF  58
0314:  BCF    03.5
0315:  MOVF   48,W
0316:  BSF    03.5
0317:  MOVWF  57
0318:  MOVF   7A,W
0319:  MOVWF  5E
031A:  MOVF   79,W
031B:  MOVWF  5D
031C:  MOVF   78,W
031D:  MOVWF  5C
031E:  MOVF   77,W
031F:  MOVWF  5B
0320:  BCF    03.5
0321:  CALL   08B
0322:  MOVF   77,W
0323:  BSF    03.5
0324:  MOVWF  4F
0325:  MOVF   78,W
0326:  MOVWF  50
0327:  MOVF   79,W
0328:  MOVWF  51
0329:  MOVF   7A,W
032A:  MOVWF  52
032B:  BCF    03.5
032C:  MOVF   5F,W
032D:  BSF    03.5
032E:  MOVWF  5A
032F:  BCF    03.5
0330:  MOVF   5E,W
0331:  BSF    03.5
0332:  MOVWF  59
0333:  BCF    03.5
0334:  MOVF   5D,W
0335:  BSF    03.5
0336:  MOVWF  58
0337:  BCF    03.5
0338:  MOVF   5C,W
0339:  BSF    03.5
033A:  MOVWF  57
033B:  BCF    03.5
033C:  MOVF   3F,W
033D:  BSF    03.5
033E:  MOVWF  5E
033F:  BCF    03.5
0340:  MOVF   3E,W
0341:  BSF    03.5
0342:  MOVWF  5D
0343:  BCF    03.5
0344:  MOVF   3D,W
0345:  BSF    03.5
0346:  MOVWF  5C
0347:  BCF    03.5
0348:  MOVF   3C,W
0349:  BSF    03.5
034A:  MOVWF  5B
034B:  BCF    03.5
034C:  CALL   1D1
034D:  BCF    03.1
034E:  BSF    03.5
034F:  MOVF   52,W
0350:  MOVWF  5A
0351:  MOVF   51,W
0352:  MOVWF  59
0353:  MOVF   50,W
0354:  MOVWF  58
0355:  MOVF   4F,W
0356:  MOVWF  57
0357:  MOVF   7A,W
0358:  MOVWF  5E
0359:  MOVF   79,W
035A:  MOVWF  5D
035B:  MOVF   78,W
035C:  MOVWF  5C
035D:  MOVF   77,W
035E:  MOVWF  5B
035F:  BCF    03.5
0360:  CALL   08B
0361:  MOVF   77,W
0362:  BSF    03.5
0363:  MOVWF  53
0364:  MOVF   78,W
0365:  MOVWF  54
0366:  MOVF   79,W
0367:  MOVWF  55
0368:  MOVF   7A,W
0369:  MOVWF  56
036A:  BCF    03.5
036B:  MOVF   63,W
036C:  BSF    03.5
036D:  MOVWF  5A
036E:  BCF    03.5
036F:  MOVF   62,W
0370:  BSF    03.5
0371:  MOVWF  59
0372:  BCF    03.5
0373:  MOVF   61,W
0374:  BSF    03.5
0375:  MOVWF  58
0376:  BCF    03.5
0377:  MOVF   60,W
0378:  BSF    03.5
0379:  MOVWF  57
037A:  BCF    03.5
037B:  MOVF   43,W
037C:  BSF    03.5
037D:  MOVWF  5E
037E:  BCF    03.5
037F:  MOVF   42,W
0380:  BSF    03.5
0381:  MOVWF  5D
0382:  BCF    03.5
0383:  MOVF   41,W
0384:  BSF    03.5
0385:  MOVWF  5C
0386:  BCF    03.5
0387:  MOVF   40,W
0388:  BSF    03.5
0389:  MOVWF  5B
038A:  BCF    03.5
038B:  CALL   1D1
038C:  BCF    03.1
038D:  BSF    03.5
038E:  MOVF   56,W
038F:  MOVWF  5A
0390:  MOVF   55,W
0391:  MOVWF  59
0392:  MOVF   54,W
0393:  MOVWF  58
0394:  MOVF   53,W
0395:  MOVWF  57
0396:  MOVF   7A,W
0397:  MOVWF  5E
0398:  MOVF   79,W
0399:  MOVWF  5D
039A:  MOVF   78,W
039B:  MOVWF  5C
039C:  MOVF   77,W
039D:  MOVWF  5B
039E:  BCF    03.5
039F:  CALL   08B
03A0:  MOVF   7A,W
03A1:  MOVWF  47
03A2:  MOVF   79,W
03A3:  MOVWF  46
03A4:  MOVF   78,W
03A5:  MOVWF  45
03A6:  MOVF   77,W
03A7:  MOVWF  44
....................      
....................     if (u >= 1000.0)        //Saturo la accion de control 'uT' en un tope maximo y minimo 
03A8:  BSF    03.5
03A9:  CLRF   52
03AA:  CLRF   51
03AB:  MOVLW  7A
03AC:  MOVWF  50
03AD:  MOVLW  88
03AE:  MOVWF  4F
03AF:  BCF    03.5
03B0:  MOVF   47,W
03B1:  BSF    03.5
03B2:  MOVWF  56
03B3:  BCF    03.5
03B4:  MOVF   46,W
03B5:  BSF    03.5
03B6:  MOVWF  55
03B7:  BCF    03.5
03B8:  MOVF   45,W
03B9:  BSF    03.5
03BA:  MOVWF  54
03BB:  BCF    03.5
03BC:  MOVF   44,W
03BD:  BSF    03.5
03BE:  MOVWF  53
03BF:  BCF    03.5
03C0:  CALL   248
03C1:  BTFSC  03.0
03C2:  GOTO   3C5
03C3:  BTFSS  03.2
03C4:  GOTO   3CB
....................      u = 1000.0; 
03C5:  CLRF   47
03C6:  CLRF   46
03C7:  MOVLW  7A
03C8:  MOVWF  45
03C9:  MOVLW  88
03CA:  MOVWF  44
....................      
....................     if (u <= 0.0) 
03CB:  MOVF   47,W
03CC:  BSF    03.5
03CD:  MOVWF  52
03CE:  BCF    03.5
03CF:  MOVF   46,W
03D0:  BSF    03.5
03D1:  MOVWF  51
03D2:  BCF    03.5
03D3:  MOVF   45,W
03D4:  BSF    03.5
03D5:  MOVWF  50
03D6:  BCF    03.5
03D7:  MOVF   44,W
03D8:  BSF    03.5
03D9:  MOVWF  4F
03DA:  CLRF   56
03DB:  CLRF   55
03DC:  CLRF   54
03DD:  CLRF   53
03DE:  BCF    03.5
03DF:  CALL   248
03E0:  BTFSC  03.0
03E1:  GOTO   3E4
03E2:  BTFSS  03.2
03E3:  GOTO   3E8
....................      u = 0.0; 
03E4:  CLRF   47
03E5:  CLRF   46
03E6:  CLRF   45
03E7:  CLRF   44
....................       
....................      control=u; 
03E8:  MOVF   47,W
03E9:  BSF    03.5
03EA:  MOVWF  52
03EB:  BCF    03.5
03EC:  MOVF   46,W
03ED:  BSF    03.5
03EE:  MOVWF  51
03EF:  BCF    03.5
03F0:  MOVF   45,W
03F1:  BSF    03.5
03F2:  MOVWF  50
03F3:  BCF    03.5
03F4:  MOVF   44,W
03F5:  BSF    03.5
03F6:  MOVWF  4F
03F7:  BCF    03.5
03F8:  GOTO   289
03F9:  MOVF   79,W
03FA:  MOVWF  2F
03FB:  MOVF   78,W
03FC:  MOVWF  2E
....................       
....................      //Retorno a los valores reales 
....................      e_2=e_1; 
03FD:  MOVF   3F,W
03FE:  MOVWF  43
03FF:  MOVF   3E,W
0400:  MOVWF  42
0401:  MOVF   3D,W
0402:  MOVWF  41
0403:  MOVF   3C,W
0404:  MOVWF  40
....................      e_1=e; 
0405:  MOVF   3B,W
0406:  MOVWF  3F
0407:  MOVF   3A,W
0408:  MOVWF  3E
0409:  MOVF   39,W
040A:  MOVWF  3D
040B:  MOVF   38,W
040C:  MOVWF  3C
....................      u_1=u; 
040D:  MOVF   47,W
040E:  MOVWF  4B
040F:  MOVF   46,W
0410:  MOVWF  4A
0411:  MOVF   45,W
0412:  MOVWF  49
0413:  MOVF   44,W
0414:  MOVWF  48
....................       
....................      //La accion calculada la transformo en PWM 
....................      set_pwm1_duty(control); 
0415:  MOVF   2F,W
0416:  MOVWF  79
0417:  MOVF   2E,W
0418:  MOVWF  78
0419:  RRF    79,F
041A:  RRF    78,F
041B:  RRF    79,F
041C:  RRF    78,F
041D:  RRF    79,F
041E:  MOVF   78,W
041F:  MOVWF  15
0420:  RRF    79,F
0421:  RRF    79,W
0422:  ANDLW  30
0423:  MOVWF  77
0424:  MOVF   17,W
0425:  ANDLW  CF
0426:  IORWF  77,W
0427:  MOVWF  17
....................       
....................    } 
.................... } 
0428:  BCF    0B.2
0429:  BCF    0A.3
042A:  BCF    0A.4
042B:  GOTO   01D
.................... void main() 
.................... { 
*
0800:  CLRF   04
0801:  BCF    03.7
0802:  MOVLW  1F
0803:  ANDWF  03,F
0804:  BSF    03.5
0805:  BSF    03.6
0806:  MOVF   09,W
0807:  ANDLW  C0
0808:  MOVWF  09
0809:  BCF    03.6
080A:  BCF    1F.4
080B:  BCF    1F.5
080C:  MOVLW  00
080D:  BSF    03.6
080E:  MOVWF  08
080F:  BCF    79.5
0810:  BSF    79.4
0811:  MOVLW  04
0812:  MOVWF  7B
0813:  MOVWF  7A
0814:  BCF    03.6
0815:  MOVF   05,W
0816:  IORLW  06
0817:  MOVWF  05
0818:  MOVF   07,W
0819:  ANDLW  FD
081A:  MOVWF  07
....................    set_tris_c(0); 
*
0859:  MOVLW  FF
085A:  MOVWF  74
085B:  MOVLW  00
085C:  BSF    03.5
085D:  MOVWF  07
085E:  MOVWF  74
....................    set_tris_d(0); 
085F:  MOVWF  08
....................    setup_timer_2(t2_div_by_4,249,1);   //Configuracion de Timer 2 para establecer frec. PWM a 1kHz 
0860:  MOVWF  78
0861:  IORLW  05
0862:  BCF    03.5
0863:  MOVWF  12
0864:  MOVLW  F9
0865:  BSF    03.5
0866:  MOVWF  12
....................    setup_ccp1(ccp_pwm);                //Configurar modulo CCP1 en modo PWM 
0867:  BCF    74.2
0868:  MOVF   74,W
0869:  MOVWF  07
086A:  BCF    03.5
086B:  BCF    07.2
086C:  MOVLW  0C
086D:  MOVWF  17
086E:  BSF    03.5
086F:  CLRF   1B
....................    set_pwm1_duty(0);                   //Dejo en cero la salida PWM 
0870:  BCF    03.5
0871:  CLRF   15
....................     
....................    setup_adc_ports(sAN0);              //Configurar ADC (Lectura de temperatura) 
0872:  BSF    03.5
0873:  BSF    03.6
0874:  MOVF   09,W
0875:  ANDLW  C0
0876:  MOVWF  09
0877:  BCF    03.6
0878:  BCF    1F.4
0879:  BCF    1F.5
087A:  MOVLW  00
087B:  IORLW  01
087C:  BSF    03.6
087D:  MOVWF  08
....................    setup_adc(adc_clock_internal);      //Reloj interno para la conversion analoga digital) 
087E:  BCF    03.5
087F:  BCF    03.6
0880:  BSF    1F.6
0881:  BSF    1F.7
0882:  BSF    03.5
0883:  BSF    1F.7
0884:  BCF    03.5
0885:  BSF    1F.0
....................    set_adc_channel(0);                 //Seleccionar Canal 0 para sensor de Temperatura 
0886:  MOVLW  00
0887:  MOVWF  78
0888:  MOVF   1F,W
0889:  ANDLW  C3
088A:  IORWF  78,W
088B:  MOVWF  1F
....................     
....................    SET_RTCC(246);                               //Cargo el TIMER0 con 243 
088C:  MOVLW  F6
088D:  MOVWF  01
....................    SETUP_COUNTERS(RTCC_INTERNAL, RTCC_DIV_256); //Configuro el TIMER0 con  prescaler 256 
088E:  BSF    03.6
088F:  BCF    05.0
0890:  MOVLW  07
0891:  MOVWF  77
0892:  BTFSS  77.3
0893:  GOTO   09F
0894:  MOVLW  07
0895:  BCF    03.6
0896:  CLRF   01
0897:  MOVLW  81
0898:  MOVWF  04
0899:  BCF    03.7
089A:  MOVF   00,W
089B:  ANDLW  C0
089C:  IORLW  0F
089D:  MOVWF  00
089E:  BSF    03.6
089F:  CLRWDT
08A0:  MOVLW  81
08A1:  MOVWF  04
08A2:  MOVF   00,W
08A3:  ANDLW  C0
08A4:  IORWF  77,W
08A5:  MOVWF  00
....................     
....................    ENABLE_INTERRUPTS(INT_RTCC);  //Habilito interrupcion por TIMER0 
08A6:  BCF    03.6
08A7:  BSF    0B.5
....................    enable_interrupts(GLOBAL);    //Habilito las interrupciones a nivel global 
08A8:  MOVLW  C0
08A9:  IORWF  0B,F
....................     
....................    LCD_INIT();                         //Inicializo el LCD 
08AA:  BCF    0A.3
08AB:  GOTO   499
08AC:  BSF    0A.3
....................    LCD_PUTC("\f");                     //Limpio el LCD 
08AD:  BSF    03.5
08AE:  CLRF   30
08AF:  MOVF   30,W
08B0:  BCF    0A.3
08B1:  BCF    03.5
08B2:  CALL   03B
08B3:  BSF    0A.3
08B4:  IORLW  00
08B5:  BTFSC  03.2
08B6:  GOTO   0C1
08B7:  BSF    03.5
08B8:  INCF   30,F
08B9:  MOVWF  42
08BA:  BCF    0A.3
08BB:  BCF    03.5
08BC:  CALL   4FE
08BD:  BSF    0A.3
08BE:  BSF    03.5
08BF:  GOTO   0AF
08C0:  BCF    03.5
08C1:  CLRF   28
08C2:  BTFSC  0B.7
08C3:  BSF    28.7
08C4:  BCF    0B.7
....................     
....................    //*************************************************************************// 
....................    //*************  DISEÑO POR ASIGNACIÓN DE 2 POLOS REALES   ****************// 
....................    //*************************************************************************// 
....................    /* 
....................    TsMA=4;                    //Tiempo deseado en Lazo Cerrado     
....................    Wn=3/(TsMA);               //Frecuencia natural del sistema 
....................     
....................    //Ubicación de 2 Polos reales 
....................    P1=Wn+Wn; 
....................    P2=Wn*Wn; 
....................     
....................    kp=(P1*tao-1)/k;        //Calculo de Kc 
....................    ti=(k*kp)/(P2*tao);     //Calculo de ti 
....................    */ 
....................    //*************************************************************************// 
....................    //*****************   DISEÑO POR CANCELACIÓN DE POLOS    *******************// 
....................    //*************************************************************************// 
....................    /* 
....................    TsMA=1;                  //Tiempo deseado en Lazo Cerrado  
....................    kp=(tao)/(TsMA*k);      //Calculo de Kc 
....................    ti=tao;                  //Calculo de Ti (Igual a la constante de tiempo) 
....................    td=0; 
....................    */ 
....................    //*************************************************************************// 
....................    //*****************   SINTONIA POR ZIEGLER y NICHOLS    *******************// 
....................    //*************************************************************************// 
....................     
....................    kp=(1.2*tao)/(k*theta); 
08C5:  MOVLW  9A
08C6:  BSF    03.5
08C7:  MOVWF  5A
08C8:  MOVLW  99
08C9:  MOVWF  59
08CA:  MOVLW  19
08CB:  MOVWF  58
08CC:  MOVLW  7F
08CD:  MOVWF  57
08CE:  BCF    03.5
08CF:  MOVF   6F,W
08D0:  BSF    03.5
08D1:  MOVWF  5E
08D2:  BCF    03.5
08D3:  MOVF   6E,W
08D4:  BSF    03.5
08D5:  MOVWF  5D
08D6:  BCF    03.5
08D7:  MOVF   6D,W
08D8:  BSF    03.5
08D9:  MOVWF  5C
08DA:  BCF    03.5
08DB:  MOVF   6C,W
08DC:  BSF    03.5
08DD:  MOVWF  5B
08DE:  BCF    0A.3
08DF:  BCF    03.5
08E0:  CALL   1D1
08E1:  BSF    0A.3
08E2:  BTFSC  28.7
08E3:  BSF    0B.7
08E4:  MOVF   77,W
08E5:  BSF    03.5
08E6:  MOVWF  30
08E7:  MOVF   78,W
08E8:  MOVWF  31
08E9:  MOVF   79,W
08EA:  MOVWF  32
08EB:  MOVF   7A,W
08EC:  MOVWF  33
08ED:  BCF    03.5
08EE:  CLRF   28
08EF:  BTFSC  0B.7
08F0:  BSF    28.7
08F1:  BCF    0B.7
08F2:  MOVF   6B,W
08F3:  BSF    03.5
08F4:  MOVWF  5A
08F5:  BCF    03.5
08F6:  MOVF   6A,W
08F7:  BSF    03.5
08F8:  MOVWF  59
08F9:  BCF    03.5
08FA:  MOVF   69,W
08FB:  BSF    03.5
08FC:  MOVWF  58
08FD:  BCF    03.5
08FE:  MOVF   68,W
08FF:  BSF    03.5
0900:  MOVWF  57
0901:  MOVF   73,W
0902:  MOVWF  5E
0903:  MOVF   72,W
0904:  MOVWF  5D
0905:  MOVF   71,W
0906:  MOVWF  5C
0907:  MOVF   70,W
0908:  MOVWF  5B
0909:  BCF    0A.3
090A:  BCF    03.5
090B:  CALL   1D1
090C:  BSF    0A.3
090D:  BTFSC  28.7
090E:  BSF    0B.7
090F:  BSF    03.5
0910:  MOVF   33,W
0911:  MOVWF  3F
0912:  MOVF   32,W
0913:  MOVWF  3E
0914:  MOVF   31,W
0915:  MOVWF  3D
0916:  MOVF   30,W
0917:  MOVWF  3C
0918:  MOVF   7A,W
0919:  MOVWF  43
091A:  MOVF   79,W
091B:  MOVWF  42
091C:  MOVF   78,W
091D:  MOVWF  41
091E:  MOVF   77,W
091F:  MOVWF  40
0920:  BCF    0A.3
0921:  BCF    03.5
0922:  CALL   534
0923:  BSF    0A.3
0924:  MOVF   7A,W
0925:  MOVWF  4F
0926:  MOVF   79,W
0927:  MOVWF  4E
0928:  MOVF   78,W
0929:  MOVWF  4D
092A:  MOVF   77,W
092B:  MOVWF  4C
092C:  CLRF   28
092D:  BTFSC  0B.7
092E:  BSF    28.7
092F:  BCF    0B.7
....................    ti=2*theta; 
0930:  BSF    03.5
0931:  CLRF   5A
0932:  CLRF   59
0933:  CLRF   58
0934:  MOVLW  80
0935:  MOVWF  57
0936:  MOVF   73,W
0937:  MOVWF  5E
0938:  MOVF   72,W
0939:  MOVWF  5D
093A:  MOVF   71,W
093B:  MOVWF  5C
093C:  MOVF   70,W
093D:  MOVWF  5B
093E:  BCF    0A.3
093F:  BCF    03.5
0940:  CALL   1D1
0941:  BSF    0A.3
0942:  BTFSC  28.7
0943:  BSF    0B.7
0944:  MOVF   7A,W
0945:  MOVWF  53
0946:  MOVF   79,W
0947:  MOVWF  52
0948:  MOVF   78,W
0949:  MOVWF  51
094A:  MOVF   77,W
094B:  MOVWF  50
094C:  CLRF   28
094D:  BTFSC  0B.7
094E:  BSF    28.7
094F:  BCF    0B.7
....................    td=0.5*theta; 
0950:  BSF    03.5
0951:  CLRF   5A
0952:  CLRF   59
0953:  CLRF   58
0954:  MOVLW  7E
0955:  MOVWF  57
0956:  MOVF   73,W
0957:  MOVWF  5E
0958:  MOVF   72,W
0959:  MOVWF  5D
095A:  MOVF   71,W
095B:  MOVWF  5C
095C:  MOVF   70,W
095D:  MOVWF  5B
095E:  BCF    0A.3
095F:  BCF    03.5
0960:  CALL   1D1
0961:  BSF    0A.3
0962:  BTFSC  28.7
0963:  BSF    0B.7
0964:  MOVF   7A,W
0965:  MOVWF  57
0966:  MOVF   79,W
0967:  MOVWF  56
0968:  MOVF   78,W
0969:  MOVWF  55
096A:  MOVF   77,W
096B:  MOVWF  54
096C:  CLRF   28
096D:  BTFSC  0B.7
096E:  BSF    28.7
096F:  BCF    0B.7
....................     
....................    //*************************************************************************// 
....................     
....................   // Calculo do controle PID digital 
....................    q0=kp*(1+T/(2*ti)+td/T); 
0970:  BSF    03.5
0971:  CLRF   5A
0972:  CLRF   59
0973:  CLRF   58
0974:  MOVLW  80
0975:  MOVWF  57
0976:  BCF    03.5
0977:  MOVF   53,W
0978:  BSF    03.5
0979:  MOVWF  5E
097A:  BCF    03.5
097B:  MOVF   52,W
097C:  BSF    03.5
097D:  MOVWF  5D
097E:  BCF    03.5
097F:  MOVF   51,W
0980:  BSF    03.5
0981:  MOVWF  5C
0982:  BCF    03.5
0983:  MOVF   50,W
0984:  BSF    03.5
0985:  MOVWF  5B
0986:  BCF    0A.3
0987:  BCF    03.5
0988:  CALL   1D1
0989:  BSF    0A.3
098A:  BTFSC  28.7
098B:  BSF    0B.7
098C:  MOVF   67,W
098D:  BSF    03.5
098E:  MOVWF  3F
098F:  BCF    03.5
0990:  MOVF   66,W
0991:  BSF    03.5
0992:  MOVWF  3E
0993:  BCF    03.5
0994:  MOVF   65,W
0995:  BSF    03.5
0996:  MOVWF  3D
0997:  BCF    03.5
0998:  MOVF   64,W
0999:  BSF    03.5
099A:  MOVWF  3C
099B:  MOVF   7A,W
099C:  MOVWF  43
099D:  MOVF   79,W
099E:  MOVWF  42
099F:  MOVF   78,W
09A0:  MOVWF  41
09A1:  MOVF   77,W
09A2:  MOVWF  40
09A3:  BCF    0A.3
09A4:  BCF    03.5
09A5:  CALL   534
09A6:  BSF    0A.3
09A7:  BCF    03.1
09A8:  CLRF   28
09A9:  BTFSC  0B.7
09AA:  BSF    28.7
09AB:  BCF    0B.7
09AC:  BSF    03.5
09AD:  CLRF   5A
09AE:  CLRF   59
09AF:  CLRF   58
09B0:  MOVLW  7F
09B1:  MOVWF  57
09B2:  MOVF   7A,W
09B3:  MOVWF  5E
09B4:  MOVF   79,W
09B5:  MOVWF  5D
09B6:  MOVF   78,W
09B7:  MOVWF  5C
09B8:  MOVF   77,W
09B9:  MOVWF  5B
09BA:  BCF    0A.3
09BB:  BCF    03.5
09BC:  CALL   08B
09BD:  BSF    0A.3
09BE:  BTFSC  28.7
09BF:  BSF    0B.7
09C0:  MOVF   77,W
09C1:  BSF    03.5
09C2:  MOVWF  30
09C3:  MOVF   78,W
09C4:  MOVWF  31
09C5:  MOVF   79,W
09C6:  MOVWF  32
09C7:  MOVF   7A,W
09C8:  MOVWF  33
09C9:  BCF    03.5
09CA:  MOVF   57,W
09CB:  BSF    03.5
09CC:  MOVWF  3F
09CD:  BCF    03.5
09CE:  MOVF   56,W
09CF:  BSF    03.5
09D0:  MOVWF  3E
09D1:  BCF    03.5
09D2:  MOVF   55,W
09D3:  BSF    03.5
09D4:  MOVWF  3D
09D5:  BCF    03.5
09D6:  MOVF   54,W
09D7:  BSF    03.5
09D8:  MOVWF  3C
09D9:  BCF    03.5
09DA:  MOVF   67,W
09DB:  BSF    03.5
09DC:  MOVWF  43
09DD:  BCF    03.5
09DE:  MOVF   66,W
09DF:  BSF    03.5
09E0:  MOVWF  42
09E1:  BCF    03.5
09E2:  MOVF   65,W
09E3:  BSF    03.5
09E4:  MOVWF  41
09E5:  BCF    03.5
09E6:  MOVF   64,W
09E7:  BSF    03.5
09E8:  MOVWF  40
09E9:  BCF    0A.3
09EA:  BCF    03.5
09EB:  CALL   534
09EC:  BSF    0A.3
09ED:  BCF    03.1
09EE:  CLRF   28
09EF:  BTFSC  0B.7
09F0:  BSF    28.7
09F1:  BCF    0B.7
09F2:  BSF    03.5
09F3:  MOVF   33,W
09F4:  MOVWF  5A
09F5:  MOVF   32,W
09F6:  MOVWF  59
09F7:  MOVF   31,W
09F8:  MOVWF  58
09F9:  MOVF   30,W
09FA:  MOVWF  57
09FB:  MOVF   7A,W
09FC:  MOVWF  5E
09FD:  MOVF   79,W
09FE:  MOVWF  5D
09FF:  MOVF   78,W
0A00:  MOVWF  5C
0A01:  MOVF   77,W
0A02:  MOVWF  5B
0A03:  BCF    0A.3
0A04:  BCF    03.5
0A05:  CALL   08B
0A06:  BSF    0A.3
0A07:  BTFSC  28.7
0A08:  BSF    0B.7
0A09:  CLRF   28
0A0A:  BTFSC  0B.7
0A0B:  BSF    28.7
0A0C:  BCF    0B.7
0A0D:  MOVF   4F,W
0A0E:  BSF    03.5
0A0F:  MOVWF  5A
0A10:  BCF    03.5
0A11:  MOVF   4E,W
0A12:  BSF    03.5
0A13:  MOVWF  59
0A14:  BCF    03.5
0A15:  MOVF   4D,W
0A16:  BSF    03.5
0A17:  MOVWF  58
0A18:  BCF    03.5
0A19:  MOVF   4C,W
0A1A:  BSF    03.5
0A1B:  MOVWF  57
0A1C:  MOVF   7A,W
0A1D:  MOVWF  5E
0A1E:  MOVF   79,W
0A1F:  MOVWF  5D
0A20:  MOVF   78,W
0A21:  MOVWF  5C
0A22:  MOVF   77,W
0A23:  MOVWF  5B
0A24:  BCF    0A.3
0A25:  BCF    03.5
0A26:  CALL   1D1
0A27:  BSF    0A.3
0A28:  BTFSC  28.7
0A29:  BSF    0B.7
0A2A:  MOVF   7A,W
0A2B:  MOVWF  5B
0A2C:  MOVF   79,W
0A2D:  MOVWF  5A
0A2E:  MOVF   78,W
0A2F:  MOVWF  59
0A30:  MOVF   77,W
0A31:  MOVWF  58
....................    q1=-kp*(1-T/(2*ti)+(2*td)/T); 
0A32:  MOVF   4C,W
0A33:  BSF    03.5
0A34:  MOVWF  30
0A35:  BCF    03.5
0A36:  MOVF   4D,W
0A37:  XORLW  80
0A38:  BSF    03.5
0A39:  MOVWF  31
0A3A:  BCF    03.5
0A3B:  MOVF   4E,W
0A3C:  BSF    03.5
0A3D:  MOVWF  32
0A3E:  BCF    03.5
0A3F:  MOVF   4F,W
0A40:  BSF    03.5
0A41:  MOVWF  33
0A42:  BCF    03.5
0A43:  CLRF   28
0A44:  BTFSC  0B.7
0A45:  BSF    28.7
0A46:  BCF    0B.7
0A47:  BSF    03.5
0A48:  CLRF   5A
0A49:  CLRF   59
0A4A:  CLRF   58
0A4B:  MOVLW  80
0A4C:  MOVWF  57
0A4D:  BCF    03.5
0A4E:  MOVF   53,W
0A4F:  BSF    03.5
0A50:  MOVWF  5E
0A51:  BCF    03.5
0A52:  MOVF   52,W
0A53:  BSF    03.5
0A54:  MOVWF  5D
0A55:  BCF    03.5
0A56:  MOVF   51,W
0A57:  BSF    03.5
0A58:  MOVWF  5C
0A59:  BCF    03.5
0A5A:  MOVF   50,W
0A5B:  BSF    03.5
0A5C:  MOVWF  5B
0A5D:  BCF    0A.3
0A5E:  BCF    03.5
0A5F:  CALL   1D1
0A60:  BSF    0A.3
0A61:  BTFSC  28.7
0A62:  BSF    0B.7
0A63:  MOVF   67,W
0A64:  BSF    03.5
0A65:  MOVWF  3F
0A66:  BCF    03.5
0A67:  MOVF   66,W
0A68:  BSF    03.5
0A69:  MOVWF  3E
0A6A:  BCF    03.5
0A6B:  MOVF   65,W
0A6C:  BSF    03.5
0A6D:  MOVWF  3D
0A6E:  BCF    03.5
0A6F:  MOVF   64,W
0A70:  BSF    03.5
0A71:  MOVWF  3C
0A72:  MOVF   7A,W
0A73:  MOVWF  43
0A74:  MOVF   79,W
0A75:  MOVWF  42
0A76:  MOVF   78,W
0A77:  MOVWF  41
0A78:  MOVF   77,W
0A79:  MOVWF  40
0A7A:  BCF    0A.3
0A7B:  BCF    03.5
0A7C:  CALL   534
0A7D:  BSF    0A.3
0A7E:  BSF    03.1
0A7F:  CLRF   28
0A80:  BTFSC  0B.7
0A81:  BSF    28.7
0A82:  BCF    0B.7
0A83:  BSF    03.5
0A84:  CLRF   5A
0A85:  CLRF   59
0A86:  CLRF   58
0A87:  MOVLW  7F
0A88:  MOVWF  57
0A89:  MOVF   7A,W
0A8A:  MOVWF  5E
0A8B:  MOVF   79,W
0A8C:  MOVWF  5D
0A8D:  MOVF   78,W
0A8E:  MOVWF  5C
0A8F:  MOVF   77,W
0A90:  MOVWF  5B
0A91:  BCF    0A.3
0A92:  BCF    03.5
0A93:  CALL   08B
0A94:  BSF    0A.3
0A95:  BTFSC  28.7
0A96:  BSF    0B.7
0A97:  MOVF   77,W
0A98:  BSF    03.5
0A99:  MOVWF  34
0A9A:  MOVF   78,W
0A9B:  MOVWF  35
0A9C:  MOVF   79,W
0A9D:  MOVWF  36
0A9E:  MOVF   7A,W
0A9F:  MOVWF  37
0AA0:  BCF    03.5
0AA1:  CLRF   28
0AA2:  BTFSC  0B.7
0AA3:  BSF    28.7
0AA4:  BCF    0B.7
0AA5:  BSF    03.5
0AA6:  CLRF   5A
0AA7:  CLRF   59
0AA8:  CLRF   58
0AA9:  MOVLW  80
0AAA:  MOVWF  57
0AAB:  BCF    03.5
0AAC:  MOVF   57,W
0AAD:  BSF    03.5
0AAE:  MOVWF  5E
0AAF:  BCF    03.5
0AB0:  MOVF   56,W
0AB1:  BSF    03.5
0AB2:  MOVWF  5D
0AB3:  BCF    03.5
0AB4:  MOVF   55,W
0AB5:  BSF    03.5
0AB6:  MOVWF  5C
0AB7:  BCF    03.5
0AB8:  MOVF   54,W
0AB9:  BSF    03.5
0ABA:  MOVWF  5B
0ABB:  BCF    0A.3
0ABC:  BCF    03.5
0ABD:  CALL   1D1
0ABE:  BSF    0A.3
0ABF:  BTFSC  28.7
0AC0:  BSF    0B.7
0AC1:  MOVF   77,W
0AC2:  BSF    03.5
0AC3:  MOVWF  38
0AC4:  MOVF   78,W
0AC5:  MOVWF  39
0AC6:  MOVF   79,W
0AC7:  MOVWF  3A
0AC8:  MOVF   7A,W
0AC9:  MOVWF  3B
0ACA:  MOVWF  3F
0ACB:  MOVF   3A,W
0ACC:  MOVWF  3E
0ACD:  MOVF   39,W
0ACE:  MOVWF  3D
0ACF:  MOVF   38,W
0AD0:  MOVWF  3C
0AD1:  BCF    03.5
0AD2:  MOVF   67,W
0AD3:  BSF    03.5
0AD4:  MOVWF  43
0AD5:  BCF    03.5
0AD6:  MOVF   66,W
0AD7:  BSF    03.5
0AD8:  MOVWF  42
0AD9:  BCF    03.5
0ADA:  MOVF   65,W
0ADB:  BSF    03.5
0ADC:  MOVWF  41
0ADD:  BCF    03.5
0ADE:  MOVF   64,W
0ADF:  BSF    03.5
0AE0:  MOVWF  40
0AE1:  BCF    0A.3
0AE2:  BCF    03.5
0AE3:  CALL   534
0AE4:  BSF    0A.3
0AE5:  BCF    03.1
0AE6:  CLRF   28
0AE7:  BTFSC  0B.7
0AE8:  BSF    28.7
0AE9:  BCF    0B.7
0AEA:  BSF    03.5
0AEB:  MOVF   37,W
0AEC:  MOVWF  5A
0AED:  MOVF   36,W
0AEE:  MOVWF  59
0AEF:  MOVF   35,W
0AF0:  MOVWF  58
0AF1:  MOVF   34,W
0AF2:  MOVWF  57
0AF3:  MOVF   7A,W
0AF4:  MOVWF  5E
0AF5:  MOVF   79,W
0AF6:  MOVWF  5D
0AF7:  MOVF   78,W
0AF8:  MOVWF  5C
0AF9:  MOVF   77,W
0AFA:  MOVWF  5B
0AFB:  BCF    0A.3
0AFC:  BCF    03.5
0AFD:  CALL   08B
0AFE:  BSF    0A.3
0AFF:  BTFSC  28.7
0B00:  BSF    0B.7
0B01:  CLRF   28
0B02:  BTFSC  0B.7
0B03:  BSF    28.7
0B04:  BCF    0B.7
0B05:  BSF    03.5
0B06:  MOVF   33,W
0B07:  MOVWF  5A
0B08:  MOVF   32,W
0B09:  MOVWF  59
0B0A:  MOVF   31,W
0B0B:  MOVWF  58
0B0C:  MOVF   30,W
0B0D:  MOVWF  57
0B0E:  MOVF   7A,W
0B0F:  MOVWF  5E
0B10:  MOVF   79,W
0B11:  MOVWF  5D
0B12:  MOVF   78,W
0B13:  MOVWF  5C
0B14:  MOVF   77,W
0B15:  MOVWF  5B
0B16:  BCF    0A.3
0B17:  BCF    03.5
0B18:  CALL   1D1
0B19:  BSF    0A.3
0B1A:  BTFSC  28.7
0B1B:  BSF    0B.7
0B1C:  MOVF   7A,W
0B1D:  MOVWF  5F
0B1E:  MOVF   79,W
0B1F:  MOVWF  5E
0B20:  MOVF   78,W
0B21:  MOVWF  5D
0B22:  MOVF   77,W
0B23:  MOVWF  5C
0B24:  CLRF   28
0B25:  BTFSC  0B.7
0B26:  BSF    28.7
0B27:  BCF    0B.7
....................    q2=(kp*td)/T; 
0B28:  MOVF   4F,W
0B29:  BSF    03.5
0B2A:  MOVWF  5A
0B2B:  BCF    03.5
0B2C:  MOVF   4E,W
0B2D:  BSF    03.5
0B2E:  MOVWF  59
0B2F:  BCF    03.5
0B30:  MOVF   4D,W
0B31:  BSF    03.5
0B32:  MOVWF  58
0B33:  BCF    03.5
0B34:  MOVF   4C,W
0B35:  BSF    03.5
0B36:  MOVWF  57
0B37:  BCF    03.5
0B38:  MOVF   57,W
0B39:  BSF    03.5
0B3A:  MOVWF  5E
0B3B:  BCF    03.5
0B3C:  MOVF   56,W
0B3D:  BSF    03.5
0B3E:  MOVWF  5D
0B3F:  BCF    03.5
0B40:  MOVF   55,W
0B41:  BSF    03.5
0B42:  MOVWF  5C
0B43:  BCF    03.5
0B44:  MOVF   54,W
0B45:  BSF    03.5
0B46:  MOVWF  5B
0B47:  BCF    0A.3
0B48:  BCF    03.5
0B49:  CALL   1D1
0B4A:  BSF    0A.3
0B4B:  BTFSC  28.7
0B4C:  BSF    0B.7
0B4D:  MOVF   77,W
0B4E:  BSF    03.5
0B4F:  MOVWF  30
0B50:  MOVF   78,W
0B51:  MOVWF  31
0B52:  MOVF   79,W
0B53:  MOVWF  32
0B54:  MOVF   7A,W
0B55:  MOVWF  33
0B56:  MOVWF  3F
0B57:  MOVF   32,W
0B58:  MOVWF  3E
0B59:  MOVF   31,W
0B5A:  MOVWF  3D
0B5B:  MOVF   30,W
0B5C:  MOVWF  3C
0B5D:  BCF    03.5
0B5E:  MOVF   67,W
0B5F:  BSF    03.5
0B60:  MOVWF  43
0B61:  BCF    03.5
0B62:  MOVF   66,W
0B63:  BSF    03.5
0B64:  MOVWF  42
0B65:  BCF    03.5
0B66:  MOVF   65,W
0B67:  BSF    03.5
0B68:  MOVWF  41
0B69:  BCF    03.5
0B6A:  MOVF   64,W
0B6B:  BSF    03.5
0B6C:  MOVWF  40
0B6D:  BCF    0A.3
0B6E:  BCF    03.5
0B6F:  CALL   534
0B70:  BSF    0A.3
0B71:  MOVF   7A,W
0B72:  MOVWF  63
0B73:  MOVF   79,W
0B74:  MOVWF  62
0B75:  MOVF   78,W
0B76:  MOVWF  61
0B77:  MOVF   77,W
0B78:  MOVWF  60
....................        
....................    while(1) 
....................    { 
....................  
....................       adc=read_adc(); //Leer ADC 
0B79:  BSF    1F.1
0B7A:  BTFSC  1F.1
0B7B:  GOTO   37A
0B7C:  BSF    03.5
0B7D:  MOVF   1E,W
0B7E:  BCF    03.5
0B7F:  MOVWF  2C
0B80:  MOVF   1E,W
0B81:  MOVWF  2D
....................       yM=adc*5000.0/1024.0; 
0B82:  MOVF   2D,W
0B83:  BSF    03.5
0B84:  MOVWF  31
0B85:  BCF    03.5
0B86:  MOVF   2C,W
0B87:  BSF    03.5
0B88:  MOVWF  30
0B89:  BCF    0A.3
0B8A:  BCF    03.5
0B8B:  GOTO   600
0B8C:  BSF    0A.3
0B8D:  CLRF   28
0B8E:  BTFSC  0B.7
0B8F:  BSF    28.7
0B90:  BCF    0B.7
0B91:  MOVF   7A,W
0B92:  BSF    03.5
0B93:  MOVWF  5A
0B94:  MOVF   79,W
0B95:  MOVWF  59
0B96:  MOVF   78,W
0B97:  MOVWF  58
0B98:  MOVF   77,W
0B99:  MOVWF  57
0B9A:  CLRF   5E
0B9B:  MOVLW  40
0B9C:  MOVWF  5D
0B9D:  MOVLW  1C
0B9E:  MOVWF  5C
0B9F:  MOVLW  8B
0BA0:  MOVWF  5B
0BA1:  BCF    0A.3
0BA2:  BCF    03.5
0BA3:  CALL   1D1
0BA4:  BSF    0A.3
0BA5:  BTFSC  28.7
0BA6:  BSF    0B.7
0BA7:  MOVF   77,W
0BA8:  BSF    03.5
0BA9:  MOVWF  30
0BAA:  MOVF   78,W
0BAB:  MOVWF  31
0BAC:  MOVF   79,W
0BAD:  MOVWF  32
0BAE:  MOVF   7A,W
0BAF:  MOVWF  33
0BB0:  MOVWF  3F
0BB1:  MOVF   32,W
0BB2:  MOVWF  3E
0BB3:  MOVF   31,W
0BB4:  MOVWF  3D
0BB5:  MOVF   30,W
0BB6:  MOVWF  3C
0BB7:  CLRF   43
0BB8:  CLRF   42
0BB9:  CLRF   41
0BBA:  MOVLW  89
0BBB:  MOVWF  40
0BBC:  BCF    0A.3
0BBD:  BCF    03.5
0BBE:  CALL   534
0BBF:  BSF    0A.3
0BC0:  MOVF   7A,W
0BC1:  MOVWF  33
0BC2:  MOVF   79,W
0BC3:  MOVWF  32
0BC4:  MOVF   78,W
0BC5:  MOVWF  31
0BC6:  MOVF   77,W
0BC7:  MOVWF  30
....................  
....................       
....................       //Muestra mensajes en LCD 
....................       lcd_gotoxy(1,1); 
0BC8:  MOVLW  01
0BC9:  BSF    03.5
0BCA:  MOVWF  43
0BCB:  MOVWF  44
0BCC:  BCF    0A.3
0BCD:  BCF    03.5
0BCE:  CALL   4D3
0BCF:  BSF    0A.3
....................       printf(lcd_putc,"Temp: %f",yM/10); 
0BD0:  MOVF   33,W
0BD1:  BSF    03.5
0BD2:  MOVWF  3F
0BD3:  BCF    03.5
0BD4:  MOVF   32,W
0BD5:  BSF    03.5
0BD6:  MOVWF  3E
0BD7:  BCF    03.5
0BD8:  MOVF   31,W
0BD9:  BSF    03.5
0BDA:  MOVWF  3D
0BDB:  BCF    03.5
0BDC:  MOVF   30,W
0BDD:  BSF    03.5
0BDE:  MOVWF  3C
0BDF:  CLRF   43
0BE0:  CLRF   42
0BE1:  MOVLW  20
0BE2:  MOVWF  41
0BE3:  MOVLW  82
0BE4:  MOVWF  40
0BE5:  BCF    0A.3
0BE6:  BCF    03.5
0BE7:  CALL   534
0BE8:  BSF    0A.3
0BE9:  MOVF   77,W
0BEA:  BSF    03.5
0BEB:  MOVWF  30
0BEC:  MOVF   78,W
0BED:  MOVWF  31
0BEE:  MOVF   79,W
0BEF:  MOVWF  32
0BF0:  MOVF   7A,W
0BF1:  MOVWF  33
0BF2:  CLRF   34
0BF3:  MOVF   34,W
0BF4:  BCF    0A.3
0BF5:  BCF    03.5
0BF6:  CALL   041
0BF7:  BSF    0A.3
0BF8:  BSF    03.5
0BF9:  INCF   34,F
0BFA:  MOVWF  77
0BFB:  MOVWF  42
0BFC:  BCF    0A.3
0BFD:  BCF    03.5
0BFE:  CALL   4FE
0BFF:  BSF    0A.3
0C00:  MOVLW  06
0C01:  BSF    03.5
0C02:  SUBWF  34,W
0C03:  BTFSS  03.2
0C04:  GOTO   3F3
0C05:  MOVLW  89
0C06:  MOVWF  04
0C07:  MOVF   33,W
0C08:  MOVWF  38
0C09:  MOVF   32,W
0C0A:  MOVWF  37
0C0B:  MOVF   31,W
0C0C:  MOVWF  36
0C0D:  MOVF   30,W
0C0E:  MOVWF  35
0C0F:  MOVLW  02
0C10:  MOVWF  39
0C11:  BCF    0A.3
0C12:  BCF    03.5
0C13:  CALL   688
0C14:  BSF    0A.3
....................       lcd_gotoxy(1,2); 
0C15:  MOVLW  01
0C16:  BSF    03.5
0C17:  MOVWF  43
0C18:  MOVLW  02
0C19:  MOVWF  44
0C1A:  BCF    0A.3
0C1B:  BCF    03.5
0C1C:  CALL   4D3
0C1D:  BSF    0A.3
....................       printf(lcd_putc,"SetPoint: %2.2f C   ",R/10); 
0C1E:  MOVF   37,W
0C1F:  BSF    03.5
0C20:  MOVWF  3F
0C21:  BCF    03.5
0C22:  MOVF   36,W
0C23:  BSF    03.5
0C24:  MOVWF  3E
0C25:  BCF    03.5
0C26:  MOVF   35,W
0C27:  BSF    03.5
0C28:  MOVWF  3D
0C29:  BCF    03.5
0C2A:  MOVF   34,W
0C2B:  BSF    03.5
0C2C:  MOVWF  3C
0C2D:  CLRF   43
0C2E:  CLRF   42
0C2F:  MOVLW  20
0C30:  MOVWF  41
0C31:  MOVLW  82
0C32:  MOVWF  40
0C33:  BCF    0A.3
0C34:  BCF    03.5
0C35:  CALL   534
0C36:  BSF    0A.3
0C37:  MOVF   77,W
0C38:  BSF    03.5
0C39:  MOVWF  30
0C3A:  MOVF   78,W
0C3B:  MOVWF  31
0C3C:  MOVF   79,W
0C3D:  MOVWF  32
0C3E:  MOVF   7A,W
0C3F:  MOVWF  33
0C40:  CLRF   34
0C41:  MOVF   34,W
0C42:  BCF    0A.3
0C43:  BCF    03.5
0C44:  CALL   04E
0C45:  BSF    0A.3
0C46:  BSF    03.5
0C47:  INCF   34,F
0C48:  MOVWF  77
0C49:  MOVWF  42
0C4A:  BCF    0A.3
0C4B:  BCF    03.5
0C4C:  CALL   4FE
0C4D:  BSF    0A.3
0C4E:  MOVLW  0A
0C4F:  BSF    03.5
0C50:  SUBWF  34,W
0C51:  BTFSS  03.2
0C52:  GOTO   441
0C53:  MOVLW  89
0C54:  MOVWF  04
0C55:  MOVF   33,W
0C56:  MOVWF  38
0C57:  MOVF   32,W
0C58:  MOVWF  37
0C59:  MOVF   31,W
0C5A:  MOVWF  36
0C5B:  MOVF   30,W
0C5C:  MOVWF  35
0C5D:  MOVLW  02
0C5E:  MOVWF  39
0C5F:  BCF    0A.3
0C60:  BCF    03.5
0C61:  CALL   688
0C62:  BSF    0A.3
0C63:  MOVLW  20
0C64:  BSF    03.5
0C65:  MOVWF  42
0C66:  BCF    0A.3
0C67:  BCF    03.5
0C68:  CALL   4FE
0C69:  BSF    0A.3
0C6A:  MOVLW  43
0C6B:  BSF    03.5
0C6C:  MOVWF  42
0C6D:  BCF    0A.3
0C6E:  BCF    03.5
0C6F:  CALL   4FE
0C70:  BSF    0A.3
0C71:  MOVLW  03
0C72:  BSF    03.5
0C73:  MOVWF  35
0C74:  MOVLW  20
0C75:  MOVWF  42
0C76:  BCF    0A.3
0C77:  BCF    03.5
0C78:  CALL   4FE
0C79:  BSF    0A.3
0C7A:  BSF    03.5
0C7B:  DECFSZ 35,F
0C7C:  GOTO   474
....................       lcd_gotoxy(1,3); 
0C7D:  MOVLW  01
0C7E:  MOVWF  43
0C7F:  MOVLW  03
0C80:  MOVWF  44
0C81:  BCF    0A.3
0C82:  BCF    03.5
0C83:  CALL   4D3
0C84:  BSF    0A.3
....................       printf(lcd_putc,"Error: %2.2f C   ",e/10); 
0C85:  MOVF   3B,W
0C86:  BSF    03.5
0C87:  MOVWF  3F
0C88:  BCF    03.5
0C89:  MOVF   3A,W
0C8A:  BSF    03.5
0C8B:  MOVWF  3E
0C8C:  BCF    03.5
0C8D:  MOVF   39,W
0C8E:  BSF    03.5
0C8F:  MOVWF  3D
0C90:  BCF    03.5
0C91:  MOVF   38,W
0C92:  BSF    03.5
0C93:  MOVWF  3C
0C94:  CLRF   43
0C95:  CLRF   42
0C96:  MOVLW  20
0C97:  MOVWF  41
0C98:  MOVLW  82
0C99:  MOVWF  40
0C9A:  BCF    0A.3
0C9B:  BCF    03.5
0C9C:  CALL   534
0C9D:  BSF    0A.3
0C9E:  MOVF   77,W
0C9F:  BSF    03.5
0CA0:  MOVWF  30
0CA1:  MOVF   78,W
0CA2:  MOVWF  31
0CA3:  MOVF   79,W
0CA4:  MOVWF  32
0CA5:  MOVF   7A,W
0CA6:  MOVWF  33
0CA7:  CLRF   34
0CA8:  MOVF   34,W
0CA9:  BCF    0A.3
0CAA:  BCF    03.5
0CAB:  CALL   064
0CAC:  BSF    0A.3
0CAD:  BSF    03.5
0CAE:  INCF   34,F
0CAF:  MOVWF  77
0CB0:  MOVWF  42
0CB1:  BCF    0A.3
0CB2:  BCF    03.5
0CB3:  CALL   4FE
0CB4:  BSF    0A.3
0CB5:  MOVLW  07
0CB6:  BSF    03.5
0CB7:  SUBWF  34,W
0CB8:  BTFSS  03.2
0CB9:  GOTO   4A8
0CBA:  MOVLW  89
0CBB:  MOVWF  04
0CBC:  MOVF   33,W
0CBD:  MOVWF  38
0CBE:  MOVF   32,W
0CBF:  MOVWF  37
0CC0:  MOVF   31,W
0CC1:  MOVWF  36
0CC2:  MOVF   30,W
0CC3:  MOVWF  35
0CC4:  MOVLW  02
0CC5:  MOVWF  39
0CC6:  BCF    0A.3
0CC7:  BCF    03.5
0CC8:  CALL   688
0CC9:  BSF    0A.3
0CCA:  MOVLW  20
0CCB:  BSF    03.5
0CCC:  MOVWF  42
0CCD:  BCF    0A.3
0CCE:  BCF    03.5
0CCF:  CALL   4FE
0CD0:  BSF    0A.3
0CD1:  MOVLW  43
0CD2:  BSF    03.5
0CD3:  MOVWF  42
0CD4:  BCF    0A.3
0CD5:  BCF    03.5
0CD6:  CALL   4FE
0CD7:  BSF    0A.3
0CD8:  MOVLW  03
0CD9:  BSF    03.5
0CDA:  MOVWF  35
0CDB:  MOVLW  20
0CDC:  MOVWF  42
0CDD:  BCF    0A.3
0CDE:  BCF    03.5
0CDF:  CALL   4FE
0CE0:  BSF    0A.3
0CE1:  BSF    03.5
0CE2:  DECFSZ 35,F
0CE3:  GOTO   4DB
....................       lcd_gotoxy(1,4); 
0CE4:  MOVLW  01
0CE5:  MOVWF  43
0CE6:  MOVLW  04
0CE7:  MOVWF  44
0CE8:  BCF    0A.3
0CE9:  BCF    03.5
0CEA:  CALL   4D3
0CEB:  BSF    0A.3
....................       printf(lcd_putc,"u(ley Con): %ld   ",control); 
0CEC:  BSF    03.5
0CED:  CLRF   30
0CEE:  MOVF   30,W
0CEF:  BCF    0A.3
0CF0:  BCF    03.5
0CF1:  CALL   077
0CF2:  BSF    0A.3
0CF3:  BSF    03.5
0CF4:  INCF   30,F
0CF5:  MOVWF  77
0CF6:  MOVWF  42
0CF7:  BCF    0A.3
0CF8:  BCF    03.5
0CF9:  CALL   4FE
0CFA:  BSF    0A.3
0CFB:  MOVLW  0C
0CFC:  BSF    03.5
0CFD:  SUBWF  30,W
0CFE:  BTFSS  03.2
0CFF:  GOTO   4EE
0D00:  MOVLW  10
0D01:  MOVWF  04
0D02:  BCF    03.5
0D03:  MOVF   2F,W
0D04:  BSF    03.5
0D05:  MOVWF  32
0D06:  BCF    03.5
0D07:  MOVF   2E,W
0D08:  BSF    03.5
0D09:  MOVWF  31
0D0A:  BCF    0A.3
0D0B:  BCF    03.5
0D0C:  GOTO   76C
0D0D:  BSF    0A.3
0D0E:  MOVLW  03
0D0F:  BSF    03.5
0D10:  MOVWF  31
0D11:  MOVLW  20
0D12:  MOVWF  42
0D13:  BCF    0A.3
0D14:  BCF    03.5
0D15:  CALL   4FE
0D16:  BSF    0A.3
0D17:  BSF    03.5
0D18:  DECFSZ 31,F
0D19:  GOTO   511
....................        
....................  
....................       } 
0D1A:  BCF    03.5
0D1B:  GOTO   379
.................... } 
0D1C:  SLEEP

Configuration Fuses:
   Word  1: 2CE1   XT NOWDT PUT MCLR NOPROTECT NOCPD NOBROWNOUT IESO FCMEN NOLVP NODEBUG
   Word  2: 3FFF   NOWRT BORV40
